; Function Attrs: nounwind uwtable
define hidden noundef ptr @create_mspace(i64 noundef %0, i32 noundef %1) local_unnamed_addr #0 {
  %3 = load i64, ptr @mparams, align 8, !tbaa !3
  %.not = icmp eq i64 %3, 0
  br i1 %.not, label %4, label %5

4:                                                ; preds = %2
  tail call fastcc void @init_mparams()
  br label %5

5:                                                ; preds = %4, %2
  %6 = load i64, ptr getelementptr inbounds nuw (i8, ptr @mparams, i64 8), align 8, !tbaa !31
  %7 = sub i64 -1024, %6
  %8 = icmp ult i64 %0, %7
  br i1 %8, label %9, label %69

9:                                                ; preds = %5
  %10 = icmp eq i64 %0, 0
  %11 = load i64, ptr getelementptr inbounds nuw (i8, ptr @mparams, i64 16), align 8
  %12 = add i64 %0, 1024
  %13 = select i1 %10, i64 %11, i64 %12
  %14 = add i64 %11, -1
  %15 = add i64 %14, %13
  %16 = sub i64 0, %11
  %17 = and i64 %15, %16
  %18 = tail call ptr @mmap(ptr noundef null, i64 noundef %17, i32 noundef 3, i32 noundef 34, i32 noundef -1, i64 noundef 0) #17
  %.not17 = icmp eq ptr %18, inttoptr (i64 -1 to ptr)
  br i1 %.not17, label %69, label %19

19:                                               ; preds = %9
  %20 = getelementptr inbounds nuw i8, ptr %18, i64 16
  %21 = ptrtoint ptr %20 to i64
  %22 = sub i64 0, %21
  %23 = and i64 %22, 15
  %24 = getelementptr inbounds nuw i8, ptr %18, i64 %23
  %25 = getelementptr inbounds nuw i8, ptr %24, i64 16
  %26 = getelementptr inbounds nuw i8, ptr %24, i64 8
  tail call void @llvm.memset.p0.i64(ptr noundef nonnull align 8 dereferenceable(944) %25, i8 0, i64 944, i1 false)
  store i64 947, ptr %26, align 8, !tbaa !23
  %27 = getelementptr inbounds nuw i8, ptr %24, i64 40
  store ptr %18, ptr %27, align 8, !tbaa !19
  %28 = getelementptr inbounds nuw i8, ptr %24, i64 904
  store ptr %18, ptr %28, align 8, !tbaa !51
  %29 = getelementptr inbounds nuw i8, ptr %24, i64 880
  store i64 %17, ptr %29, align 8, !tbaa !50
  %30 = getelementptr inbounds nuw i8, ptr %24, i64 872
  store i64 %17, ptr %30, align 8, !tbaa !49
  %31 = getelementptr inbounds nuw i8, ptr %24, i64 912
  store i64 %17, ptr %31, align 8, !tbaa !52
  %32 = load i64, ptr @mparams, align 8, !tbaa !3
  %33 = getelementptr inbounds nuw i8, ptr %24, i64 80
  store i64 %32, ptr %33, align 8, !tbaa !54
  %34 = getelementptr inbounds nuw i8, ptr %24, i64 72
  store i64 4095, ptr %34, align 8, !tbaa !55
  %35 = load i32, ptr getelementptr inbounds nuw (i8, ptr @mparams, i64 40), align 8, !tbaa !34
  %36 = getelementptr inbounds nuw i8, ptr %24, i64 896
  %37 = getelementptr inbounds nuw i8, ptr %24, i64 936
  tail call void @llvm.memset.p0.i64(ptr noundef nonnull align 8 dereferenceable(16) %37, i8 0, i64 16, i1 false)
  %38 = getelementptr inbounds nuw i8, ptr %24, i64 88
  br label %39

39:                                               ; preds = %39, %19
  %indvars.iv.i.i = phi i64 [ 0, %19 ], [ %indvars.iv.next.i.i, %39 ]
  %40 = shl nuw nsw i64 %indvars.iv.i.i, 1
  %41 = getelementptr inbounds nuw [66 x ptr], ptr %38, i64 0, i64 %40
  %42 = getelementptr inbounds nuw i8, ptr %41, i64 24
  store ptr %41, ptr %42, align 8, !tbaa !21
  %43 = getelementptr inbounds nuw i8, ptr %41, i64 16
  store ptr %41, ptr %43, align 8, !tbaa !17
  %indvars.iv.next.i.i = add nuw nsw i64 %indvars.iv.i.i, 1
  %exitcond.not.i.i = icmp eq i64 %indvars.iv.next.i.i, 32
  br i1 %exitcond.not.i.i, label %init_user_mstate.exit, label %39, !llvm.loop !56

init_user_mstate.exit:                            ; preds = %39
  %44 = getelementptr inbounds nuw i8, ptr %24, i64 944
  %45 = getelementptr inbounds nuw i8, ptr %18, i64 %17
  %46 = ptrtoint ptr %45 to i64
  %47 = ptrtoint ptr %44 to i64
  %48 = sub i64 %46, %47
  %49 = add i64 %48, -80
  %50 = getelementptr inbounds nuw i8, ptr %24, i64 960
  %51 = ptrtoint ptr %50 to i64
  %52 = sub i64 0, %51
  %53 = and i64 %52, 15
  %54 = getelementptr inbounds nuw i8, ptr %44, i64 %53
  %55 = sub i64 %49, %53
  %56 = getelementptr inbounds nuw i8, ptr %24, i64 56
  store ptr %54, ptr %56, align 8, !tbaa !29
  %57 = getelementptr inbounds nuw i8, ptr %24, i64 32
  store i64 %55, ptr %57, align 8, !tbaa !28
  %58 = or i64 %55, 1
  %59 = getelementptr inbounds nuw i8, ptr %54, i64 8
  store i64 %58, ptr %59, align 8, !tbaa !23
  %60 = getelementptr inbounds nuw i8, ptr %44, i64 %49
  %61 = getelementptr inbounds nuw i8, ptr %60, i64 8
  store i64 80, ptr %61, align 8, !tbaa !23
  %62 = load i64, ptr getelementptr inbounds nuw (i8, ptr @mparams, i64 32), align 8, !tbaa !33
  %63 = getelementptr inbounds nuw i8, ptr %24, i64 64
  store i64 %62, ptr %63, align 8, !tbaa !57
  %64 = getelementptr inbounds nuw i8, ptr %24, i64 928
  store i32 1, ptr %64, align 8, !tbaa !53
  %.not18 = icmp eq i32 %1, 0
  %65 = or i32 %35, 6
  %66 = and i32 %35, -7
  %67 = or disjoint i32 %66, 4
  %68 = select i1 %.not18, i32 %67, i32 %65
  store i32 %68, ptr %36, align 8, !tbaa !9
  br label %69

69:                                               ; preds = %9, %init_user_mstate.exit, %5
  %.0 = phi ptr [ null, %5 ], [ %25, %init_user_mstate.exit ], [ null, %9 ]
  ret ptr %.0
}